; ModuleID = '38/256.c'
source_filename = "38/256.c"
target datalayout = "e-m:e-p270:32:32-p271:32:32-p272:64:64-i64:64-f80:128-n8:16:32:64-S128"
target triple = "x86_64-pc-linux-gnu"

@.str = private unnamed_addr constant [3 x i8] c"%d\00", align 1
@.str.1 = private unnamed_addr constant [4 x i8] c"%lf\00", align 1
@.str.2 = private unnamed_addr constant [8 x i8] c"%0.5lf\0A\00", align 1

; Function Attrs: noinline nounwind uwtable
define dso_local i32 @main() #0 {
  %1 = alloca i32, align 4
  %2 = alloca i32, align 4
  %3 = alloca i32, align 4
  %4 = alloca i32, align 4
  %5 = alloca i32, align 4
  %6 = alloca [1000 x double], align 16
  %7 = alloca [1000 x double], align 16
  %8 = alloca double, align 8
  store i32 0, i32* %1, align 4
  store i32 0, i32* %4, align 4
  store i32 0, i32* %5, align 4
  store double 0.000000e+00, double* %8, align 8
  %9 = call i32 (i8*, ...) @__isoc99_scanf(i8* getelementptr inbounds ([3 x i8], [3 x i8]* @.str, i64 0, i64 0), i32* %4)
  store i32 0, i32* %2, align 4
  br label %10

10:                                               ; preds = %95, %0
  %11 = load i32, i32* %2, align 4
  %12 = load i32, i32* %4, align 4
  %13 = icmp slt i32 %11, %12
  br i1 %13, label %14, label %98

14:                                               ; preds = %10
  %15 = load i32, i32* %2, align 4
  %16 = sext i32 %15 to i64
  %17 = getelementptr inbounds [1000 x double], [1000 x double]* %7, i64 0, i64 %16
  store double 0.000000e+00, double* %17, align 8
  store double 0.000000e+00, double* %8, align 8
  %18 = call i32 (i8*, ...) @__isoc99_scanf(i8* getelementptr inbounds ([3 x i8], [3 x i8]* @.str, i64 0, i64 0), i32* %5)
  store i32 0, i32* %3, align 4
  br label %19

19:                                               ; preds = %28, %14
  %20 = load i32, i32* %3, align 4
  %21 = load i32, i32* %5, align 4
  %22 = icmp slt i32 %20, %21
  br i1 %22, label %23, label %31

23:                                               ; preds = %19
  %24 = load i32, i32* %3, align 4
  %25 = sext i32 %24 to i64
  %26 = getelementptr inbounds [1000 x double], [1000 x double]* %6, i64 0, i64 %25
  %27 = call i32 (i8*, ...) @__isoc99_scanf(i8* getelementptr inbounds ([4 x i8], [4 x i8]* @.str.1, i64 0, i64 0), double* %26)
  br label %28

28:                                               ; preds = %23
  %29 = load i32, i32* %3, align 4
  %30 = add nsw i32 %29, 1
  store i32 %30, i32* %3, align 4
  br label %19

31:                                               ; preds = %19
  store i32 0, i32* %3, align 4
  br label %32

32:                                               ; preds = %43, %31
  %33 = load i32, i32* %3, align 4
  %34 = load i32, i32* %5, align 4
  %35 = icmp slt i32 %33, %34
  br i1 %35, label %36, label %46

36:                                               ; preds = %32
  %37 = load double, double* %8, align 8
  %38 = load i32, i32* %3, align 4
  %39 = sext i32 %38 to i64
  %40 = getelementptr inbounds [1000 x double], [1000 x double]* %6, i64 0, i64 %39
  %41 = load double, double* %40, align 8
  %42 = fadd double %37, %41
  store double %42, double* %8, align 8
  br label %43

43:                                               ; preds = %36
  %44 = load i32, i32* %3, align 4
  %45 = add nsw i32 %44, 1
  store i32 %45, i32* %3, align 4
  br label %32

46:                                               ; preds = %32
  store i32 0, i32* %3, align 4
  br label %47

47:                                               ; preds = %81, %46
  %48 = load i32, i32* %3, align 4
  %49 = load i32, i32* %5, align 4
  %50 = icmp slt i32 %48, %49
  br i1 %50, label %51, label %84

51:                                               ; preds = %47
  %52 = load i32, i32* %3, align 4
  %53 = sext i32 %52 to i64
  %54 = getelementptr inbounds [1000 x double], [1000 x double]* %6, i64 0, i64 %53
  %55 = load double, double* %54, align 8
  %56 = load double, double* %8, align 8
  %57 = load i32, i32* %5, align 4
  %58 = sitofp i32 %57 to float
  %59 = fpext float %58 to double
  %60 = fdiv double %56, %59
  %61 = fsub double %55, %60
  %62 = load i32, i32* %3, align 4
  %63 = sext i32 %62 to i64
  %64 = getelementptr inbounds [1000 x double], [1000 x double]* %6, i64 0, i64 %63
  %65 = load double, double* %64, align 8
  %66 = load double, double* %8, align 8
  %67 = load i32, i32* %5, align 4
  %68 = sitofp i32 %67 to float
  %69 = fpext float %68 to double
  %70 = fdiv double %66, %69
  %71 = fsub double %65, %70
  %72 = fmul double %61, %71
  %73 = load i32, i32* %2, align 4
  %74 = sext i32 %73 to i64
  %75 = getelementptr inbounds [1000 x double], [1000 x double]* %7, i64 0, i64 %74
  %76 = load double, double* %75, align 8
  %77 = fadd double %72, %76
  %78 = load i32, i32* %2, align 4
  %79 = sext i32 %78 to i64
  %80 = getelementptr inbounds [1000 x double], [1000 x double]* %7, i64 0, i64 %79
  store double %77, double* %80, align 8
  br label %81

81:                                               ; preds = %51
  %82 = load i32, i32* %3, align 4
  %83 = add nsw i32 %82, 1
  store i32 %83, i32* %3, align 4
  br label %47

84:                                               ; preds = %47
  %85 = load i32, i32* %2, align 4
  %86 = sext i32 %85 to i64
  %87 = getelementptr inbounds [1000 x double], [1000 x double]* %7, i64 0, i64 %86
  %88 = load double, double* %87, align 8
  %89 = load i32, i32* %5, align 4
  %90 = sitofp i32 %89 to float
  %91 = fpext float %90 to double
  %92 = fdiv double %88, %91
  %93 = call double @sqrt(double %92) #3
  %94 = call i32 (i8*, ...) @printf(i8* getelementptr inbounds ([8 x i8], [8 x i8]* @.str.2, i64 0, i64 0), double %93)
  br label %95

95:                                               ; preds = %84
  %96 = load i32, i32* %2, align 4
  %97 = add nsw i32 %96, 1
  store i32 %97, i32* %2, align 4
  br label %10

98:                                               ; preds = %10
  ret i32 0
}

declare dso_local i32 @__isoc99_scanf(i8*, ...) #1

declare dso_local i32 @printf(i8*, ...) #1

; Function Attrs: nounwind
declare dso_local double @sqrt(double) #2


!llvm.module.flags = !{!0}
!llvm.ident = !{!1}

!0 = !{i32 1, !"wchar_size", i32 4}
!1 = !{!"clang version 10.0.0-4ubuntu1 "}
